target datalayout = "e-m:e-p270:32:32-p271:32:32-p272:64:64-i64:64-i128:128-f80:128-n8:16:32:64-S128"
target triple = "x86_64-pc-linux-gnu"

; Function Attrs: nounwind uwtable
define i32 @memCompare(ptr noundef %0, ptr noundef %1, i32 noundef %2) #0 {
  %4 = alloca i32, align 4
  %5 = alloca ptr, align 8
  %6 = alloca ptr, align 8
  %7 = alloca i32, align 4
  %8 = alloca i32, align 4
  %9 = alloca i32, align 4
  store ptr %0, ptr %5, align 8, !tbaa !3
  store ptr %1, ptr %6, align 8, !tbaa !3
  store i32 %2, ptr %7, align 4, !tbaa !8
  call void @llvm.lifetime.start.p0(i64 4, ptr %8) #7
  %10 = load i32, ptr %7, align 4, !tbaa !8
  %11 = call i32 @Kit_TruthWordNum_64bit(i32 noundef %10)
  %12 = sub nsw i32 %11, 1
  store i32 %12, ptr %8, align 4, !tbaa !8
  br label %13

13:                                               ; preds = %43, %3
  %14 = load i32, ptr %8, align 4, !tbaa !8
  %15 = icmp sge i32 %14, 0
  br i1 %15, label %16, label %46

16:                                               ; preds = %13
  %17 = load ptr, ptr %5, align 8, !tbaa !3
  %18 = load i32, ptr %8, align 4, !tbaa !8
  %19 = sext i32 %18 to i64
  %20 = getelementptr inbounds i64, ptr %17, i64 %19
  %21 = load i64, ptr %20, align 8, !tbaa !10
  %22 = load ptr, ptr %6, align 8, !tbaa !3
  %23 = load i32, ptr %8, align 4, !tbaa !8
  %24 = sext i32 %23 to i64
  %25 = getelementptr inbounds i64, ptr %22, i64 %24
  %26 = load i64, ptr %25, align 8, !tbaa !10
  %27 = icmp eq i64 %21, %26
  br i1 %27, label %28, label %29

28:                                               ; preds = %16
  br label %43

29:                                               ; preds = %16
  %30 = load ptr, ptr %5, align 8, !tbaa !3
  %31 = load i32, ptr %8, align 4, !tbaa !8
  %32 = sext i32 %31 to i64
  %33 = getelementptr inbounds i64, ptr %30, i64 %32
  %34 = load i64, ptr %33, align 8, !tbaa !10
  %35 = load ptr, ptr %6, align 8, !tbaa !3
  %36 = load i32, ptr %8, align 4, !tbaa !8
  %37 = sext i32 %36 to i64
  %38 = getelementptr inbounds i64, ptr %35, i64 %37
  %39 = load i64, ptr %38, align 8, !tbaa !10
  %40 = icmp ugt i64 %34, %39
  br i1 %40, label %41, label %42

41:                                               ; preds = %29
  store i32 1, ptr %4, align 4
  store i32 1, ptr %9, align 4
  br label %47

42:                                               ; preds = %29
  store i32 -1, ptr %4, align 4
  store i32 1, ptr %9, align 4
  br label %47

43:                                               ; preds = %28
  %44 = load i32, ptr %8, align 4, !tbaa !8
  %45 = add nsw i32 %44, -1
  store i32 %45, ptr %8, align 4, !tbaa !8
  br label %13, !llvm.loop !12

46:                                               ; preds = %13
  store i32 0, ptr %4, align 4
  store i32 1, ptr %9, align 4
  br label %47

47:                                               ; preds = %46, %42, %41
  call void @llvm.lifetime.end.p0(i64 4, ptr %8) #7
  %48 = load i32, ptr %4, align 4
  ret i32 %48
}

; Function Attrs: nounwind uwtable
define void @swapInfoAdjacentVars(i32 noundef %0, ptr noundef %1, ptr noundef %2) #0 {
  %4 = alloca i32, align 4
  %5 = alloca ptr, align 8
  %6 = alloca ptr, align 8
  %7 = alloca i8, align 1
  store i32 %0, ptr %4, align 4, !tbaa !8
  store ptr %1, ptr %5, align 8, !tbaa !35
  store ptr %2, ptr %6, align 8, !tbaa !32
  call void @llvm.lifetime.start.p0(i64 1, ptr %7) #7
  %8 = load ptr, ptr %5, align 8, !tbaa !35
  %9 = load i32, ptr %4, align 4, !tbaa !8
  %10 = sext i32 %9 to i64
  %11 = getelementptr inbounds i8, ptr %8, i64 %10
  %12 = load i8, ptr %11, align 1, !tbaa !37
  store i8 %12, ptr %7, align 1, !tbaa !37
  %13 = load ptr, ptr %5, align 8, !tbaa !35
  %14 = load i32, ptr %4, align 4, !tbaa !8
  %15 = add nsw i32 %14, 1
  %16 = sext i32 %15 to i64
  %17 = getelementptr inbounds i8, ptr %13, i64 %16
  %18 = load i8, ptr %17, align 1, !tbaa !37
  %19 = load ptr, ptr %5, align 8, !tbaa !35
  %20 = load i32, ptr %4, align 4, !tbaa !8
  %21 = sext i32 %20 to i64
  %22 = getelementptr inbounds i8, ptr %19, i64 %21
  store i8 %18, ptr %22, align 1, !tbaa !37
  %23 = load i8, ptr %7, align 1, !tbaa !37
  %24 = load ptr, ptr %5, align 8, !tbaa !35
  %25 = load i32, ptr %4, align 4, !tbaa !8
  %26 = add nsw i32 %25, 1
  %27 = sext i32 %26 to i64
  %28 = getelementptr inbounds i8, ptr %24, i64 %27
  store i8 %23, ptr %28, align 1, !tbaa !37
  %29 = load ptr, ptr %6, align 8, !tbaa !32
  %30 = load i32, ptr %29, align 4, !tbaa !8
  %31 = load i32, ptr %4, align 4, !tbaa !8
  %32 = shl i32 1, %31
  %33 = and i32 %30, %32
  %34 = icmp ugt i32 %33, 0
  %35 = zext i1 %34 to i32
  %36 = load ptr, ptr %6, align 8, !tbaa !32
  %37 = load i32, ptr %36, align 4, !tbaa !8
  %38 = load i32, ptr %4, align 4, !tbaa !8
  %39 = add nsw i32 %38, 1
  %40 = shl i32 1, %39
  %41 = and i32 %37, %40
  %42 = icmp ugt i32 %41, 0
  %43 = zext i1 %42 to i32
  %44 = icmp ne i32 %35, %43
  br i1 %44, label %45, label %57

45:                                               ; preds = %3
  %46 = load i32, ptr %4, align 4, !tbaa !8
  %47 = shl i32 1, %46
  %48 = load ptr, ptr %6, align 8, !tbaa !32
  %49 = load i32, ptr %48, align 4, !tbaa !8
  %50 = xor i32 %49, %47
  store i32 %50, ptr %48, align 4, !tbaa !8
  %51 = load i32, ptr %4, align 4, !tbaa !8
  %52 = add nsw i32 %51, 1
  %53 = shl i32 1, %52
  %54 = load ptr, ptr %6, align 8, !tbaa !32
  %55 = load i32, ptr %54, align 4, !tbaa !8
  %56 = xor i32 %55, %53
  store i32 %56, ptr %54, align 4, !tbaa !8
  br label %57

57:                                               ; preds = %45, %3
  call void @llvm.lifetime.end.p0(i64 1, ptr %7) #7
  ret void
}

; Function Attrs: nounwind uwtable
define i32 @minimalSwap(ptr noundef %0, ptr noundef %1, ptr noundef %2, i32 noundef %3, ptr noundef %4, ptr noundef %5, ptr noundef %6) #0 {
  %8 = alloca i32, align 4
  %9 = alloca ptr, align 8
  %10 = alloca ptr, align 8
  %11 = alloca ptr, align 8
  %12 = alloca i32, align 4
  %13 = alloca ptr, align 8
  %14 = alloca ptr, align 8
  %15 = alloca ptr, align 8
  %16 = alloca i32, align 4
  %17 = alloca i32, align 4
  %18 = alloca i32, align 4
  %19 = alloca i32, align 4
  %20 = alloca i32, align 4
  store ptr %0, ptr %9, align 8, !tbaa !3
  store ptr %1, ptr %10, align 8, !tbaa !3
  store ptr %2, ptr %11, align 8, !tbaa !3
  store i32 %3, ptr %12, align 4, !tbaa !8
  store ptr %4, ptr %13, align 8, !tbaa !35
  store ptr %5, ptr %14, align 8, !tbaa !35
  store ptr %6, ptr %15, align 8, !tbaa !32
  call void @llvm.lifetime.start.p0(i64 4, ptr %16) #7
  call void @llvm.lifetime.start.p0(i64 4, ptr %17) #7
  %21 = load i32, ptr %12, align 4, !tbaa !8
  %22 = call i32 @Kit_TruthWordNum_64bit(i32 noundef %21)
  %23 = sext i32 %22 to i64
  %24 = mul i64 %23, 8
  %25 = trunc i64 %24 to i32
  store i32 %25, ptr %17, align 4, !tbaa !8
  call void @llvm.lifetime.start.p0(i64 4, ptr %18) #7
  %26 = load i32, ptr %12, align 4, !tbaa !8
  %27 = sext i32 %26 to i64
  %28 = mul i64 %27, 1
  %29 = trunc i64 %28 to i32
  store i32 %29, ptr %18, align 4, !tbaa !8
  call void @llvm.lifetime.start.p0(i64 4, ptr %19) #7
  %30 = load ptr, ptr %15, align 8, !tbaa !32
  %31 = load i32, ptr %30, align 4, !tbaa !8
  store i32 %31, ptr %19, align 4, !tbaa !8
  %32 = load ptr, ptr %10, align 8, !tbaa !3
  %33 = load ptr, ptr %9, align 8, !tbaa !3
  %34 = load i32, ptr %17, align 4, !tbaa !8
  %35 = sext i32 %34 to i64
  call void @llvm.memcpy.p0.p0.i64(ptr align 8 %32, ptr align 8 %33, i64 %35, i1 false)
  %36 = load ptr, ptr %11, align 8, !tbaa !3
  %37 = load ptr, ptr %9, align 8, !tbaa !3
  %38 = load i32, ptr %17, align 4, !tbaa !8
  %39 = sext i32 %38 to i64
  call void @llvm.memcpy.p0.p0.i64(ptr align 8 %36, ptr align 8 %37, i64 %39, i1 false)
  %40 = load ptr, ptr %14, align 8, !tbaa !35
  %41 = load ptr, ptr %13, align 8, !tbaa !35
  %42 = load i32, ptr %18, align 4, !tbaa !8
  %43 = sext i32 %42 to i64
  call void @llvm.memcpy.p0.p0.i64(ptr align 1 %40, ptr align 1 %41, i64 %43, i1 false)
  %44 = load ptr, ptr %9, align 8, !tbaa !3
  %45 = load i32, ptr %12, align 4, !tbaa !8
  call void @Kit_TruthSwapAdjacentVars_64bit(ptr noundef %44, i32 noundef %45, i32 noundef 0)
  %46 = load ptr, ptr %13, align 8, !tbaa !35
  %47 = load ptr, ptr %15, align 8, !tbaa !32
  call void @swapInfoAdjacentVars(i32 noundef 0, ptr noundef %46, ptr noundef %47)
  store i32 1, ptr %16, align 4, !tbaa !8
  br label %48

48:                                               ; preds = %88, %7
  %49 = load i32, ptr %16, align 4, !tbaa !8
  %50 = load i32, ptr %12, align 4, !tbaa !8
  %51 = sub nsw i32 %50, 1
  %52 = icmp slt i32 %49, %51
  br i1 %52, label %53, label %91

53:                                               ; preds = %48
  %54 = load ptr, ptr %10, align 8, !tbaa !3
  %55 = load ptr, ptr %9, align 8, !tbaa !3
  %56 = load i32, ptr %12, align 4, !tbaa !8
  %57 = call i32 @memCompare(ptr noundef %54, ptr noundef %55, i32 noundef %56)
  %58 = icmp eq i32 %57, 1
  br i1 %58, label %59, label %70

59:                                               ; preds = %53
  %60 = load ptr, ptr %10, align 8, !tbaa !3
  %61 = load ptr, ptr %9, align 8, !tbaa !3
  %62 = load i32, ptr %17, align 4, !tbaa !8
  %63 = sext i32 %62 to i64
  call void @llvm.memcpy.p0.p0.i64(ptr align 8 %60, ptr align 8 %61, i64 %63, i1 false)
  %64 = load ptr, ptr %14, align 8, !tbaa !35
  %65 = load ptr, ptr %13, align 8, !tbaa !35
  %66 = load i32, ptr %18, align 4, !tbaa !8
  %67 = sext i32 %66 to i64
  call void @llvm.memcpy.p0.p0.i64(ptr align 1 %64, ptr align 1 %65, i64 %67, i1 false)
  %68 = load ptr, ptr %15, align 8, !tbaa !32
  %69 = load i32, ptr %68, align 4, !tbaa !8
  store i32 %69, ptr %19, align 4, !tbaa !8
  br label %81

70:                                               ; preds = %53
  %71 = load ptr, ptr %9, align 8, !tbaa !3
  %72 = load ptr, ptr %10, align 8, !tbaa !3
  %73 = load i32, ptr %17, align 4, !tbaa !8
  %74 = sext i32 %73 to i64
  call void @llvm.memcpy.p0.p0.i64(ptr align 8 %71, ptr align 8 %72, i64 %74, i1 false)
  %75 = load ptr, ptr %13, align 8, !tbaa !35
  %76 = load ptr, ptr %14, align 8, !tbaa !35
  %77 = load i32, ptr %18, align 4, !tbaa !8
  %78 = sext i32 %77 to i64
  call void @llvm.memcpy.p0.p0.i64(ptr align 1 %75, ptr align 1 %76, i64 %78, i1 false)
  %79 = load i32, ptr %19, align 4, !tbaa !8
  %80 = load ptr, ptr %15, align 8, !tbaa !32
  store i32 %79, ptr %80, align 4, !tbaa !8
  br label %81

81:                                               ; preds = %70, %59
  %82 = load ptr, ptr %9, align 8, !tbaa !3
  %83 = load i32, ptr %12, align 4, !tbaa !8
  %84 = load i32, ptr %16, align 4, !tbaa !8
  call void @Kit_TruthSwapAdjacentVars_64bit(ptr noundef %82, i32 noundef %83, i32 noundef %84)
  %85 = load i32, ptr %16, align 4, !tbaa !8
  %86 = load ptr, ptr %13, align 8, !tbaa !35
  %87 = load ptr, ptr %15, align 8, !tbaa !32
  call void @swapInfoAdjacentVars(i32 noundef %85, ptr noundef %86, ptr noundef %87)
  br label %88

88:                                               ; preds = %81
  %89 = load i32, ptr %16, align 4, !tbaa !8
  %90 = add nsw i32 %89, 1
  store i32 %90, ptr %16, align 4, !tbaa !8
  br label %48, !llvm.loop !38

91:                                               ; preds = %48
  %92 = load ptr, ptr %10, align 8, !tbaa !3
  %93 = load ptr, ptr %9, align 8, !tbaa !3
  %94 = load i32, ptr %12, align 4, !tbaa !8
  %95 = call i32 @memCompare(ptr noundef %92, ptr noundef %93, i32 noundef %94)
  %96 = icmp eq i32 %95, -1
  br i1 %96, label %97, label %108

97:                                               ; preds = %91
  %98 = load ptr, ptr %9, align 8, !tbaa !3
  %99 = load ptr, ptr %10, align 8, !tbaa !3
  %100 = load i32, ptr %17, align 4, !tbaa !8
  %101 = sext i32 %100 to i64
  call void @llvm.memcpy.p0.p0.i64(ptr align 8 %98, ptr align 8 %99, i64 %101, i1 false)
  %102 = load ptr, ptr %13, align 8, !tbaa !35
  %103 = load ptr, ptr %14, align 8, !tbaa !35
  %104 = load i32, ptr %18, align 4, !tbaa !8
  %105 = sext i32 %104 to i64
  call void @llvm.memcpy.p0.p0.i64(ptr align 1 %102, ptr align 1 %103, i64 %105, i1 false)
  %106 = load i32, ptr %19, align 4, !tbaa !8
  %107 = load ptr, ptr %15, align 8, !tbaa !32
  store i32 %106, ptr %107, align 4, !tbaa !8
  br label %108

108:                                              ; preds = %97, %91
  %109 = load ptr, ptr %9, align 8, !tbaa !3
  %110 = load ptr, ptr %11, align 8, !tbaa !3
  %111 = load i32, ptr %17, align 4, !tbaa !8
  %112 = sext i32 %111 to i64
  %113 = call i32 @memcmp(ptr noundef %109, ptr noundef %110, i64 noundef %112) #8
  %114 = icmp eq i32 %113, 0
  br i1 %114, label %115, label %116

115:                                              ; preds = %108
  store i32 0, ptr %8, align 4
  store i32 1, ptr %20, align 4
  br label %117

116:                                              ; preds = %108
  store i32 1, ptr %8, align 4
  store i32 1, ptr %20, align 4
  br label %117

117:                                              ; preds = %116, %115
  call void @llvm.lifetime.end.p0(i64 4, ptr %19) #7
  call void @llvm.lifetime.end.p0(i64 4, ptr %18) #7
  call void @llvm.lifetime.end.p0(i64 4, ptr %17) #7
  call void @llvm.lifetime.end.p0(i64 4, ptr %16) #7
  %118 = load i32, ptr %8, align 4
  ret i32 %118
}