; Function Attrs: nounwind uwtable
define range(i32 0, 2) i32 @minimalSwap(ptr noundef %0, ptr noundef captures(none) %1, ptr noundef captures(none) %2, i32 noundef %3, ptr noundef captures(none) %4, ptr noundef captures(none) %5, ptr noundef captures(none) %6) local_unnamed_addr #0 {
  %8 = tail call i32 @Kit_TruthWordNum_64bit(i32 noundef %3) #19
  %9 = shl i32 %8, 3
  %10 = sext i32 %3 to i64
  %11 = load i32, ptr %6, align 4, !tbaa !29
  %12 = sext i32 %9 to i64
  tail call void @llvm.memcpy.p0.p0.i64(ptr align 8 %1, ptr align 8 %0, i64 %12, i1 false)
  tail call void @llvm.memcpy.p0.p0.i64(ptr align 8 %2, ptr align 8 %0, i64 %12, i1 false)
  tail call void @llvm.memcpy.p0.p0.i64(ptr align 1 %5, ptr align 1 %4, i64 %10, i1 false)
  tail call void @Kit_TruthSwapAdjacentVars_64bit(ptr noundef %0, i32 noundef %3, i32 noundef 0) #19
  %13 = load i8, ptr %4, align 1, !tbaa !31
  %14 = getelementptr inbounds nuw i8, ptr %4, i64 1
  %15 = load i8, ptr %14, align 1, !tbaa !31
  store i8 %15, ptr %4, align 1, !tbaa !31
  store i8 %13, ptr %14, align 1, !tbaa !31
  %16 = load i32, ptr %6, align 4, !tbaa !29
  %17 = lshr i32 %16, 1
  %18 = xor i32 %17, %16
  %19 = and i32 %18, 1
  %.not.i = icmp eq i32 %19, 0
  br i1 %.not.i, label %swapInfoAdjacentVars.exit, label %20

20:                                               ; preds = %7
  %21 = xor i32 %16, 3
  store i32 %21, ptr %6, align 4, !tbaa !29
  br label %swapInfoAdjacentVars.exit

swapInfoAdjacentVars.exit:                        ; preds = %7, %20
  %22 = icmp sgt i32 %3, 2
  br i1 %22, label %.lr.ph.preheader, label %._crit_edge

.lr.ph.preheader:                                 ; preds = %swapInfoAdjacentVars.exit
  %23 = add nsw i32 %3, -1
  %wide.trip.count = zext nneg i32 %23 to i64
  br label %.lr.ph

.lr.ph:                                           ; preds = %.lr.ph.preheader, %swapInfoAdjacentVars.exit60
  %indvars.iv = phi i64 [ 1, %.lr.ph.preheader ], [ %indvars.iv.next, %swapInfoAdjacentVars.exit60 ]
  %.072 = phi i32 [ %11, %.lr.ph.preheader ], [ %.1, %swapInfoAdjacentVars.exit60 ]
  %24 = tail call i32 @Kit_TruthWordNum_64bit(i32 noundef %3) #19
  %25 = zext i32 %24 to i64
  br label %26

26:                                               ; preds = %29, %.lr.ph
  %indvars.iv.i = phi i64 [ %30, %29 ], [ %25, %.lr.ph ]
  %27 = trunc nuw i64 %indvars.iv.i to i32
  %28 = icmp sgt i32 %27, 0
  br i1 %28, label %29, label %.loopexit

29:                                               ; preds = %26
  %30 = add nsw i64 %indvars.iv.i, -1
  %31 = getelementptr inbounds nuw i64, ptr %1, i64 %30
  %32 = load i64, ptr %31, align 8, !tbaa !3
  %33 = getelementptr inbounds nuw i64, ptr %0, i64 %30
  %34 = load i64, ptr %33, align 8, !tbaa !3
  %35 = icmp eq i64 %32, %34
  br i1 %35, label %26, label %36, !llvm.loop !7

36:                                               ; preds = %29
  %37 = icmp ugt i64 %32, %34
  br i1 %37, label %memCompare.exit, label %.loopexit

memCompare.exit:                                  ; preds = %36
  tail call void @llvm.memcpy.p0.p0.i64(ptr nonnull align 8 %1, ptr nonnull align 8 %0, i64 %12, i1 false)
  tail call void @llvm.memcpy.p0.p0.i64(ptr align 1 %5, ptr nonnull align 1 %4, i64 %10, i1 false)
  %38 = load i32, ptr %6, align 4, !tbaa !29
  br label %39

.loopexit:                                        ; preds = %26, %36
  tail call void @llvm.memcpy.p0.p0.i64(ptr align 8 %0, ptr align 8 %1, i64 %12, i1 false)
  tail call void @llvm.memcpy.p0.p0.i64(ptr nonnull align 1 %4, ptr align 1 %5, i64 %10, i1 false)
  store i32 %.072, ptr %6, align 4, !tbaa !29
  br label %39

39:                                               ; preds = %.loopexit, %memCompare.exit
  %.1 = phi i32 [ %38, %memCompare.exit ], [ %.072, %.loopexit ]
  %40 = trunc nuw nsw i64 %indvars.iv to i32
  tail call void @Kit_TruthSwapAdjacentVars_64bit(ptr noundef %0, i32 noundef %3, i32 noundef %40) #19
  %41 = getelementptr inbounds nuw i8, ptr %4, i64 %indvars.iv
  %42 = load i8, ptr %41, align 1, !tbaa !31
  %indvars.iv.next = add nuw nsw i64 %indvars.iv, 1
  %43 = getelementptr inbounds nuw i8, ptr %4, i64 %indvars.iv.next
  %44 = load i8, ptr %43, align 1, !tbaa !31
  store i8 %44, ptr %41, align 1, !tbaa !31
  store i8 %42, ptr %43, align 1, !tbaa !31
  %45 = load i32, ptr %6, align 4, !tbaa !29
  %46 = lshr i32 %45, %40
  %47 = trunc nuw nsw i64 %indvars.iv.next to i32
  %48 = lshr i32 %45, %47
  %49 = xor i32 %46, %48
  %50 = and i32 %49, 1
  %.not.i59 = icmp eq i32 %50, 0
  br i1 %.not.i59, label %swapInfoAdjacentVars.exit60, label %51

51:                                               ; preds = %39
  %52 = shl i32 3, %40
  %53 = xor i32 %45, %52
  store i32 %53, ptr %6, align 4, !tbaa !29
  br label %swapInfoAdjacentVars.exit60

swapInfoAdjacentVars.exit60:                      ; preds = %39, %51
  %exitcond.not = icmp eq i64 %indvars.iv.next, %wide.trip.count
  br i1 %exitcond.not, label %._crit_edge, label %.lr.ph, !llvm.loop !32

._crit_edge:                                      ; preds = %swapInfoAdjacentVars.exit60, %swapInfoAdjacentVars.exit
  %.0.lcssa = phi i32 [ %11, %swapInfoAdjacentVars.exit ], [ %.1, %swapInfoAdjacentVars.exit60 ]
  %54 = tail call i32 @Kit_TruthWordNum_64bit(i32 noundef %3) #19
  %55 = zext i32 %54 to i64
  br label %56

56:                                               ; preds = %59, %._crit_edge
  %indvars.iv.i61 = phi i64 [ %60, %59 ], [ %55, %._crit_edge ]
  %57 = trunc nuw i64 %indvars.iv.i61 to i32
  %58 = icmp sgt i32 %57, 0
  br i1 %58, label %59, label %memCompare.exit64.thread

59:                                               ; preds = %56
  %60 = add nsw i64 %indvars.iv.i61, -1
  %61 = getelementptr inbounds nuw i64, ptr %1, i64 %60
  %62 = load i64, ptr %61, align 8, !tbaa !3
  %63 = getelementptr inbounds nuw i64, ptr %0, i64 %60
  %64 = load i64, ptr %63, align 8, !tbaa !3
  %65 = icmp eq i64 %62, %64
  br i1 %65, label %56, label %66, !llvm.loop !7

66:                                               ; preds = %59
  %67 = icmp ugt i64 %62, %64
  br i1 %67, label %memCompare.exit64.thread, label %memCompare.exit64

memCompare.exit64:                                ; preds = %66
  tail call void @llvm.memcpy.p0.p0.i64(ptr nonnull align 8 %0, ptr nonnull align 8 %1, i64 %12, i1 false)
  tail call void @llvm.memcpy.p0.p0.i64(ptr nonnull align 1 %4, ptr align 1 %5, i64 %10, i1 false)
  store i32 %.0.lcssa, ptr %6, align 4, !tbaa !29
  br label %memCompare.exit64.thread

memCompare.exit64.thread:                         ; preds = %56, %66, %memCompare.exit64
  %bcmp = tail call i32 @bcmp(ptr %0, ptr %2, i64 %12)
  %68 = icmp ne i32 %bcmp, 0
  %. = zext i1 %68 to i32
  ret i32 %.
}